; Function Attrs: mustprogress nofree norecurse nosync nounwind willreturn memory(argmem: read) uwtable
define noundef zeroext i1 @_ZNK10open_spiel13GameParameter18value_with_defaultIbEET_S2_(ptr noundef nonnull readonly align 8 captures(none) dereferenceable(108) %0, i1 noundef zeroext %1) local_unnamed_addr #6 align 2 personality ptr @__gxx_personality_v0 {
  %3 = getelementptr inbounds nuw i8, ptr %0, i64 104
  %4 = load i32, ptr %3, align 8
  %5 = icmp eq i32 %4, 3
  %6 = getelementptr inbounds nuw i8, ptr %0, i64 48
  %7 = load i8, ptr %6, align 8
  %8 = trunc i8 %7 to i1
  %.0 = select i1 %5, i1 %8, i1 %1
  ret i1 %.0
}